target datalayout = "e-m:e-p270:32:32-p271:32:32-p272:64:64-i64:64-i128:128-f80:128-n8:16:32:64-S128"
target triple = "x86_64-pc-linux-gnu"

%"class.std::__shared_count" = type { ptr }
%"class.arrow::Status" = type { ptr }
%"class.arrow::Result.188" = type { %"class.arrow::Status", %"class.arrow::internal::AlignedStorage.191" }
%"class.arrow::internal::AlignedStorage.191" = type { [16 x i8] }
%"class.arrow::NestedSelector.192" = type { %"class.std::shared_ptr.193", %"class.std::variant.196", ptr }
%"class.std::shared_ptr.193" = type { %"class.std::__shared_ptr.194" }
%"class.std::__shared_ptr.194" = type { ptr, %"class.std::__shared_count" }
%"class.std::variant.196" = type { %"struct.std::__detail::__variant::_Variant_base.base.212", [7 x i8] }
%"struct.std::__detail::__variant::_Variant_base.base.212" = type { %"struct.std::__detail::__variant::_Move_assign_base.base.211" }
%"struct.std::__detail::__variant::_Move_assign_base.base.211" = type { %"struct.std::__detail::__variant::_Copy_assign_base.base.210" }
%"struct.std::__detail::__variant::_Copy_assign_base.base.210" = type { %"struct.std::__detail::__variant::_Move_ctor_base.base.209" }
%"struct.std::__detail::__variant::_Move_ctor_base.base.209" = type { %"struct.std::__detail::__variant::_Copy_ctor_base.base.208" }
%"struct.std::__detail::__variant::_Copy_ctor_base.base.208" = type { %"struct.std::__detail::__variant::_Variant_storage.base.207" }
%"struct.std::__detail::__variant::_Variant_storage.base.207" = type <{ %"union.std::__detail::__variant::_Variadic_union.203", i8 }>
%"union.std::__detail::__variant::_Variadic_union.203" = type { %"struct.std::__detail::__variant::_Uninitialized.204" }
%"struct.std::__detail::__variant::_Uninitialized.204" = type { ptr }
%"struct.std::__detail::__variant::_Variant_storage.202" = type <{ %"union.std::__detail::__variant::_Variadic_union.203", i8, [7 x i8] }>
%"struct.std::__detail::__variant::_Uninitialized.206" = type { ptr }

; Function Attrs: mustprogress nounwind uwtable
define linkonce_odr void @_ZNSt8__detail9__variant14_UninitializedIPKSt6vectorISt10shared_ptrIN5arrow12ChunkedArrayEESaIS6_EELb1EEC2IJSA_EEESt16in_place_index_tILm0EEDpOT_(ptr noundef nonnull align 8 dereferenceable(8) %0, ptr noundef nonnull align 8 dereferenceable(8) %1) unnamed_addr #0 comdat align 2 {
  %3 = alloca ptr, align 8
  %4 = alloca ptr, align 8
  store ptr %0, ptr %3, align 8, !tbaa !2080
  store ptr %1, ptr %4, align 8, !tbaa !2056
  %5 = load ptr, ptr %3, align 8
  %6 = getelementptr inbounds nuw %"struct.std::__detail::__variant::_Uninitialized.206", ptr %5, i32 0, i32 0
  %7 = load ptr, ptr %4, align 8, !tbaa !2056
  %8 = load ptr, ptr %7, align 8, !tbaa !605
  store ptr %8, ptr %6, align 8, !tbaa !2082
  ret void
}

; Function Attrs: mustprogress uwtable
define linkonce_odr void @_ZNSt8__detail9__variant15_Variadic_unionIJPKSt6vectorISt10shared_ptrIN5arrow12ChunkedArrayEESaIS6_EEEEC2IJSA_EEESt16in_place_index_tILm0EEDpOT_(ptr noundef nonnull align 8 dereferenceable(8) %0, ptr noundef nonnull align 8 dereferenceable(8) %1) unnamed_addr #1 comdat align 2 {
  %3 = alloca ptr, align 8
  %4 = alloca ptr, align 8
  store ptr %0, ptr %3, align 8, !tbaa !2078
  store ptr %1, ptr %4, align 8, !tbaa !2056
  %5 = load ptr, ptr %3, align 8
  %6 = load ptr, ptr %4, align 8, !tbaa !2056
  call void @_ZNSt8__detail9__variant14_UninitializedIPKSt6vectorISt10shared_ptrIN5arrow12ChunkedArrayEESaIS6_EELb1EEC2IJSA_EEESt16in_place_index_tILm0EEDpOT_(ptr noundef nonnull align 8 dereferenceable(8) %5, ptr noundef nonnull align 8 dereferenceable(8) %6)
  ret void
}

; Function Attrs: mustprogress uwtable
define linkonce_odr void @_ZNSt8__detail9__variant15_Variadic_unionIJPKN5arrow12ChunkedArrayEPKSt6vectorISt10shared_ptrIS3_ESaIS8_EEEEC2ILm1EJSC_EEESt16in_place_index_tIXT_EEDpOT0_(ptr noundef nonnull align 8 dereferenceable(8) %0, ptr noundef nonnull align 8 dereferenceable(8) %1) unnamed_addr #1 comdat align 2 {
  %3 = alloca ptr, align 8
  %4 = alloca ptr, align 8
  store ptr %0, ptr %3, align 8, !tbaa !2076
  store ptr %1, ptr %4, align 8, !tbaa !2056
  %5 = load ptr, ptr %3, align 8
  %6 = load ptr, ptr %4, align 8, !tbaa !2056
  call void @_ZNSt8__detail9__variant15_Variadic_unionIJPKSt6vectorISt10shared_ptrIN5arrow12ChunkedArrayEESaIS6_EEEEC2IJSA_EEESt16in_place_index_tILm0EEDpOT_(ptr noundef nonnull align 8 dereferenceable(8) %5, ptr noundef nonnull align 8 dereferenceable(8) %6)
  ret void
}

; Function Attrs: mustprogress uwtable
define linkonce_odr void @_ZNSt8__detail9__variant16_Variant_storageILb1EJPKN5arrow12ChunkedArrayEPKSt6vectorISt10shared_ptrIS3_ESaIS8_EEEEC2ILm1EJSC_EEESt16in_place_index_tIXT_EEDpOT0_(ptr noundef nonnull align 8 dereferenceable(9) %0, ptr noundef nonnull align 8 dereferenceable(8) %1) unnamed_addr #1 comdat align 2 {
  %3 = alloca ptr, align 8
  %4 = alloca ptr, align 8
  store ptr %0, ptr %3, align 8, !tbaa !2073
  store ptr %1, ptr %4, align 8, !tbaa !2056
  %5 = load ptr, ptr %3, align 8
  %6 = getelementptr inbounds nuw %"struct.std::__detail::__variant::_Variant_storage.202", ptr %5, i32 0, i32 0
  %7 = load ptr, ptr %4, align 8, !tbaa !2056
  call void @_ZNSt8__detail9__variant15_Variadic_unionIJPKN5arrow12ChunkedArrayEPKSt6vectorISt10shared_ptrIS3_ESaIS8_EEEEC2ILm1EJSC_EEESt16in_place_index_tIXT_EEDpOT0_(ptr noundef nonnull align 8 dereferenceable(8) %6, ptr noundef nonnull align 8 dereferenceable(8) %7)
  %8 = getelementptr inbounds nuw %"struct.std::__detail::__variant::_Variant_storage.202", ptr %5, i32 0, i32 1
  store i8 1, ptr %8, align 8, !tbaa !2075
  ret void
}

; Function Attrs: inlinehint mustprogress uwtable
define linkonce_odr void @_ZNSt8__detail9__variant15_Copy_ctor_baseILb1EJPKN5arrow12ChunkedArrayEPKSt6vectorISt10shared_ptrIS3_ESaIS8_EEEECI2NS0_16_Variant_storageILb1EJS5_SC_EEEILm1EJSC_EEESt16in_place_index_tIXT_EEDpOT0_(ptr noundef nonnull align 8 dereferenceable(9) %0, ptr noundef nonnull align 8 dereferenceable(8) %1) unnamed_addr #5 comdat align 2 {
  %3 = alloca ptr, align 8
  %4 = alloca ptr, align 8
  store ptr %0, ptr %3, align 8, !tbaa !2071
  store ptr %1, ptr %4, align 8, !tbaa !2056
  %5 = load ptr, ptr %3, align 8
  %6 = load ptr, ptr %4, align 8
  call void @_ZNSt8__detail9__variant16_Variant_storageILb1EJPKN5arrow12ChunkedArrayEPKSt6vectorISt10shared_ptrIS3_ESaIS8_EEEEC2ILm1EJSC_EEESt16in_place_index_tIXT_EEDpOT0_(ptr noundef nonnull align 8 dereferenceable(9) %5, ptr noundef nonnull align 8 dereferenceable(8) %6)
  ret void
}

; Function Attrs: inlinehint mustprogress uwtable
define linkonce_odr void @_ZNSt8__detail9__variant15_Move_ctor_baseILb1EJPKN5arrow12ChunkedArrayEPKSt6vectorISt10shared_ptrIS3_ESaIS8_EEEECI2NS0_16_Variant_storageILb1EJS5_SC_EEEILm1EJSC_EEESt16in_place_index_tIXT_EEDpOT0_(ptr noundef nonnull align 8 dereferenceable(9) %0, ptr noundef nonnull align 8 dereferenceable(8) %1) unnamed_addr #5 comdat align 2 {
  %3 = alloca ptr, align 8
  %4 = alloca ptr, align 8
  store ptr %0, ptr %3, align 8, !tbaa !2069
  store ptr %1, ptr %4, align 8, !tbaa !2056
  %5 = load ptr, ptr %3, align 8
  %6 = load ptr, ptr %4, align 8
  call void @_ZNSt8__detail9__variant15_Copy_ctor_baseILb1EJPKN5arrow12ChunkedArrayEPKSt6vectorISt10shared_ptrIS3_ESaIS8_EEEECI2NS0_16_Variant_storageILb1EJS5_SC_EEEILm1EJSC_EEESt16in_place_index_tIXT_EEDpOT0_(ptr noundef nonnull align 8 dereferenceable(9) %5, ptr noundef nonnull align 8 dereferenceable(8) %6)
  ret void
}

; Function Attrs: inlinehint mustprogress uwtable
define linkonce_odr void @_ZNSt8__detail9__variant17_Copy_assign_baseILb1EJPKN5arrow12ChunkedArrayEPKSt6vectorISt10shared_ptrIS3_ESaIS8_EEEECI2NS0_16_Variant_storageILb1EJS5_SC_EEEILm1EJSC_EEESt16in_place_index_tIXT_EEDpOT0_(ptr noundef nonnull align 8 dereferenceable(9) %0, ptr noundef nonnull align 8 dereferenceable(8) %1) unnamed_addr #5 comdat align 2 {
  %3 = alloca ptr, align 8
  %4 = alloca ptr, align 8
  store ptr %0, ptr %3, align 8, !tbaa !2067
  store ptr %1, ptr %4, align 8, !tbaa !2056
  %5 = load ptr, ptr %3, align 8
  %6 = load ptr, ptr %4, align 8
  call void @_ZNSt8__detail9__variant15_Move_ctor_baseILb1EJPKN5arrow12ChunkedArrayEPKSt6vectorISt10shared_ptrIS3_ESaIS8_EEEECI2NS0_16_Variant_storageILb1EJS5_SC_EEEILm1EJSC_EEESt16in_place_index_tIXT_EEDpOT0_(ptr noundef nonnull align 8 dereferenceable(9) %5, ptr noundef nonnull align 8 dereferenceable(8) %6)
  ret void
}

; Function Attrs: inlinehint mustprogress uwtable
define linkonce_odr void @_ZNSt8__detail9__variant17_Move_assign_baseILb1EJPKN5arrow12ChunkedArrayEPKSt6vectorISt10shared_ptrIS3_ESaIS8_EEEECI2NS0_16_Variant_storageILb1EJS5_SC_EEEILm1EJSC_EEESt16in_place_index_tIXT_EEDpOT0_(ptr noundef nonnull align 8 dereferenceable(9) %0, ptr noundef nonnull align 8 dereferenceable(8) %1) unnamed_addr #5 comdat align 2 {
  %3 = alloca ptr, align 8
  %4 = alloca ptr, align 8
  store ptr %0, ptr %3, align 8, !tbaa !2065
  store ptr %1, ptr %4, align 8, !tbaa !2056
  %5 = load ptr, ptr %3, align 8
  %6 = load ptr, ptr %4, align 8
  call void @_ZNSt8__detail9__variant17_Copy_assign_baseILb1EJPKN5arrow12ChunkedArrayEPKSt6vectorISt10shared_ptrIS3_ESaIS8_EEEECI2NS0_16_Variant_storageILb1EJS5_SC_EEEILm1EJSC_EEESt16in_place_index_tIXT_EEDpOT0_(ptr noundef nonnull align 8 dereferenceable(9) %5, ptr noundef nonnull align 8 dereferenceable(8) %6)
  ret void
}

; Function Attrs: mustprogress nounwind uwtable
define linkonce_odr void @_ZNSt27_Enable_default_constructorILb1ESt7variantIJPKN5arrow12ChunkedArrayEPKSt6vectorISt10shared_ptrIS2_ESaIS7_EEEEEC2ESt31_Enable_default_constructor_tag(ptr noundef nonnull align 1 dereferenceable(1) %0) unnamed_addr #0 comdat align 2 {
  %2 = alloca ptr, align 8
  store ptr %0, ptr %2, align 8, !tbaa !2063
  ret void
}

; Function Attrs: mustprogress uwtable
define linkonce_odr void @_ZNSt8__detail9__variant13_Variant_baseIJPKN5arrow12ChunkedArrayEPKSt6vectorISt10shared_ptrIS3_ESaIS8_EEEEC2ILm1EJSC_EEESt16in_place_index_tIXT_EEDpOT0_(ptr noundef nonnull align 8 dereferenceable(9) %0, ptr noundef nonnull align 8 dereferenceable(8) %1) unnamed_addr #1 comdat align 2 {
  %3 = alloca ptr, align 8
  %4 = alloca ptr, align 8
  store ptr %0, ptr %3, align 8, !tbaa !2061
  store ptr %1, ptr %4, align 8, !tbaa !2056
  %5 = load ptr, ptr %3, align 8
  %6 = load ptr, ptr %4, align 8, !tbaa !2056
  call void @_ZNSt8__detail9__variant17_Move_assign_baseILb1EJPKN5arrow12ChunkedArrayEPKSt6vectorISt10shared_ptrIS3_ESaIS8_EEEECI2NS0_16_Variant_storageILb1EJS5_SC_EEEILm1EJSC_EEESt16in_place_index_tIXT_EEDpOT0_(ptr noundef nonnull align 8 dereferenceable(9) %5, ptr noundef nonnull align 8 dereferenceable(8) %6)
  ret void
}

; Function Attrs: mustprogress nounwind uwtable
define linkonce_odr void @_ZNSt14__shared_countILN9__gnu_cxx12_Lock_policyE2EEC2Ev(ptr noundef nonnull align 8 dereferenceable(8) %0) unnamed_addr #0 comdat align 2 {
  %2 = alloca ptr, align 8
  store ptr %0, ptr %2, align 8, !tbaa !1046
  %3 = load ptr, ptr %2, align 8
  %4 = getelementptr inbounds nuw %"class.std::__shared_count", ptr %3, i32 0, i32 0
  store ptr null, ptr %4, align 8, !tbaa !1048
  ret void
}

; Function Attrs: noinline noreturn nounwind uwtable
define linkonce_odr hidden void @__clang_call_terminate(ptr noundef %0) #18 comdat {
  %2 = call ptr @__cxa_begin_catch(ptr %0) #15
  call void @_ZSt9terminatev() #30
  unreachable
}

; Function Attrs: mustprogress uwtable
define linkonce_odr void @_ZNSt7variantIJPKN5arrow12ChunkedArrayEPKSt6vectorISt10shared_ptrIS1_ESaIS6_EEEEC2ILm1EJSA_ESA_vEESt16in_place_index_tIXT_EEDpOT0_(ptr noundef nonnull align 8 dereferenceable(9) %0, ptr noundef nonnull align 8 dereferenceable(8) %1) unnamed_addr #1 comdat align 2 {
  %3 = alloca ptr, align 8
  %4 = alloca ptr, align 8
  store ptr %0, ptr %3, align 8, !tbaa !2054
  store ptr %1, ptr %4, align 8, !tbaa !2056
  %5 = load ptr, ptr %3, align 8
  %6 = load ptr, ptr %4, align 8, !tbaa !2056
  call void @_ZNSt8__detail9__variant13_Variant_baseIJPKN5arrow12ChunkedArrayEPKSt6vectorISt10shared_ptrIS3_ESaIS8_EEEEC2ILm1EJSC_EEESt16in_place_index_tIXT_EEDpOT0_(ptr noundef nonnull align 8 dereferenceable(9) %5, ptr noundef nonnull align 8 dereferenceable(8) %6)
  call void @_ZNSt27_Enable_default_constructorILb1ESt7variantIJPKN5arrow12ChunkedArrayEPKSt6vectorISt10shared_ptrIS2_ESaIS7_EEEEEC2ESt31_Enable_default_constructor_tag(ptr noundef nonnull align 1 dereferenceable(1) %5)
  ret void
}

; Function Attrs: mustprogress nounwind uwtable
define linkonce_odr void @_ZNSt12__shared_ptrIN5arrow12ChunkedArrayELN9__gnu_cxx12_Lock_policyE2EEC2Ev(ptr noundef nonnull align 8 dereferenceable(16) %0) unnamed_addr #0 comdat align 2 {
  %2 = alloca ptr, align 8
  store ptr %0, ptr %2, align 8, !tbaa !2058
  %3 = load ptr, ptr %2, align 8
  %4 = getelementptr inbounds nuw %"class.std::__shared_ptr.194", ptr %3, i32 0, i32 0
  store ptr null, ptr %4, align 8, !tbaa !2060
  %5 = getelementptr inbounds nuw %"class.std::__shared_ptr.194", ptr %3, i32 0, i32 1
  call void @_ZNSt14__shared_countILN9__gnu_cxx12_Lock_policyE2EEC2Ev(ptr noundef nonnull align 8 dereferenceable(8) %5) #15
  ret void
}

; Function Attrs: mustprogress nounwind uwtable
define linkonce_odr void @_ZNSt7variantIJPKN5arrow12ChunkedArrayEPKSt6vectorISt10shared_ptrIS1_ESaIS6_EEEEC2ISA_vvSA_vEEOT_(ptr noundef nonnull align 8 dereferenceable(9) %0, ptr noundef nonnull align 8 dereferenceable(8) %1) unnamed_addr #0 comdat align 2 personality ptr @__gxx_personality_v0 {
  %3 = alloca ptr, align 8
  %4 = alloca ptr, align 8
  store ptr %0, ptr %3, align 8, !tbaa !2054
  store ptr %1, ptr %4, align 8, !tbaa !2056
  %5 = load ptr, ptr %3, align 8
  %6 = load ptr, ptr %4, align 8, !tbaa !2056
  invoke void @_ZNSt7variantIJPKN5arrow12ChunkedArrayEPKSt6vectorISt10shared_ptrIS1_ESaIS6_EEEEC2ILm1EJSA_ESA_vEESt16in_place_index_tIXT_EEDpOT0_(ptr noundef nonnull align 8 dereferenceable(9) %5, ptr noundef nonnull align 8 dereferenceable(8) %6)
          to label %7 unwind label %8

7:                                                ; preds = %2
  ret void

8:                                                ; preds = %2
  %9 = landingpad { ptr, i32 }
          catch ptr null
  %10 = extractvalue { ptr, i32 } %9, 0
  call void @__clang_call_terminate(ptr %10) #30
  unreachable
}

; Function Attrs: mustprogress nounwind uwtable
define linkonce_odr void @_ZNSt10shared_ptrIN5arrow12ChunkedArrayEEC2Ev(ptr noundef nonnull align 8 dereferenceable(16) %0) unnamed_addr #0 comdat align 2 {
  %2 = alloca ptr, align 8
  store ptr %0, ptr %2, align 8, !tbaa !2052
  %3 = load ptr, ptr %2, align 8
  call void @_ZNSt12__shared_ptrIN5arrow12ChunkedArrayELN9__gnu_cxx12_Lock_policyE2EEC2Ev(ptr noundef nonnull align 8 dereferenceable(16) %3) #15
  ret void
}

; Function Attrs: mustprogress uwtable
define linkonce_odr void @_ZN5arrow14NestedSelectorINS_12ChunkedArrayELb0EEC2ERKSt6vectorISt10shared_ptrIS1_ESaIS5_EE(ptr noundef nonnull align 8 dereferenceable(40) %0, ptr noundef nonnull align 8 dereferenceable(24) %1) unnamed_addr #1 comdat align 2 personality ptr @__gxx_personality_v0 {
  %3 = alloca ptr, align 8
  %4 = alloca ptr, align 8
  %5 = alloca ptr, align 8
  %6 = alloca ptr, align 8
  %7 = alloca i32, align 4
  store ptr %0, ptr %3, align 8, !tbaa !601
  store ptr %1, ptr %4, align 8, !tbaa !605
  %8 = load ptr, ptr %3, align 8
  %9 = getelementptr inbounds nuw %"class.arrow::NestedSelector.192", ptr %8, i32 0, i32 0
  call void @_ZNSt10shared_ptrIN5arrow12ChunkedArrayEEC2Ev(ptr noundef nonnull align 8 dereferenceable(16) %9) #15
  %10 = getelementptr inbounds nuw %"class.arrow::NestedSelector.192", ptr %8, i32 0, i32 1
  call void @llvm.lifetime.start.p0(i64 8, ptr %5) #15
  %11 = load ptr, ptr %4, align 8, !tbaa !605
  store ptr %11, ptr %5, align 8, !tbaa !605
  call void @_ZNSt7variantIJPKN5arrow12ChunkedArrayEPKSt6vectorISt10shared_ptrIS1_ESaIS6_EEEEC2ISA_vvSA_vEEOT_(ptr noundef nonnull align 8 dereferenceable(9) %10, ptr noundef nonnull align 8 dereferenceable(8) %5) #15
  call void @llvm.lifetime.end.p0(i64 8, ptr %5) #15
  %12 = getelementptr inbounds nuw %"class.arrow::NestedSelector.192", ptr %8, i32 0, i32 2
  %13 = invoke noundef ptr @_ZN5arrow19default_memory_poolEv()
          to label %14 unwind label %15

14:                                               ; preds = %2
  store ptr %13, ptr %12, align 8, !tbaa !607
  ret void

15:                                               ; preds = %2
  %16 = landingpad { ptr, i32 }
          cleanup
  %17 = extractvalue { ptr, i32 } %16, 0
  store ptr %17, ptr %6, align 8
  %18 = extractvalue { ptr, i32 } %16, 1
  store i32 %18, ptr %7, align 4
  call void @_ZNSt12__shared_ptrIN5arrow12ChunkedArrayELN9__gnu_cxx12_Lock_policyE2EED2Ev(ptr noundef nonnull align 8 dereferenceable(16) %9) #15
  br label %19

19:                                               ; preds = %15
  %20 = load ptr, ptr %6, align 8
  %21 = load i32, ptr %7, align 4
  %22 = insertvalue { ptr, i32 } poison, ptr %20, 0
  %23 = insertvalue { ptr, i32 } %22, i32 %21, 1
  resume { ptr, i32 } %23
}

; Function Attrs: mustprogress uwtable
define void @_ZNK5arrow9FieldPath3GetERKNS_5TableE(ptr dead_on_unwind noalias writable sret(%"class.arrow::Result.188") align 8 %0, ptr noundef nonnull align 8 dereferenceable(24) %1, ptr noundef nonnull align 8 dereferenceable(32) %2) #1 align 2 personality ptr @__gxx_personality_v0 {
  %4 = alloca ptr, align 8
  %5 = alloca ptr, align 8
  %6 = alloca ptr, align 8
  %7 = alloca %"class.arrow::NestedSelector.192", align 8
  %8 = alloca ptr, align 8
  %9 = alloca i32, align 4
  store ptr %0, ptr %4, align 8
  store ptr %1, ptr %5, align 8, !tbaa !528
  store ptr %2, ptr %6, align 8, !tbaa !599
  %10 = load ptr, ptr %5, align 8
  %11 = load ptr, ptr %6, align 8, !tbaa !599
  %12 = load ptr, ptr %11, align 8, !tbaa !166
  %13 = getelementptr inbounds ptr, ptr %12, i64 3
  %14 = load ptr, ptr %13, align 8
  %15 = call noundef nonnull align 8 dereferenceable(24) ptr %14(ptr noundef nonnull align 8 dereferenceable(32) %11)
  call void @_ZN5arrow14NestedSelectorINS_12ChunkedArrayELb0EEC2ERKSt6vectorISt10shared_ptrIS1_ESaIS5_EE(ptr noundef nonnull align 8 dereferenceable(40) %7, ptr noundef nonnull align 8 dereferenceable(24) %15)
  invoke void @_ZN5arrow16FieldPathGetImpl3GetINS_14NestedSelectorINS_12ChunkedArrayELb0EEES3_EENS_6ResultISt10shared_ptrIT0_EEEPKNS_9FieldPathET_Pi(ptr dead_on_unwind writable sret(%"class.arrow::Result.188") align 8 %0, ptr noundef %10, ptr noundef %7, ptr noundef null)
          to label %16 unwind label %17

16:                                               ; preds = %3
  call void @_ZN5arrow14NestedSelectorINS_12ChunkedArrayELb0EED2Ev(ptr noundef nonnull align 8 dereferenceable(40) %7) #15
  ret void

17:                                               ; preds = %3
  %18 = landingpad { ptr, i32 }
          cleanup
  %19 = extractvalue { ptr, i32 } %18, 0
  store ptr %19, ptr %8, align 8
  %20 = extractvalue { ptr, i32 } %18, 1
  store i32 %20, ptr %9, align 4
  call void @_ZN5arrow14NestedSelectorINS_12ChunkedArrayELb0EED2Ev(ptr noundef nonnull align 8 dereferenceable(40) %7) #15
  br label %21

21:                                               ; preds = %17
  %22 = load ptr, ptr %8, align 8
  %23 = load i32, ptr %9, align 4
  %24 = insertvalue { ptr, i32 } poison, ptr %22, 0
  %25 = insertvalue { ptr, i32 } %24, i32 %23, 1
  resume { ptr, i32 } %25
}