; Function Attrs: mustprogress uwtable
define void @_ZNK5arrow9FieldPath3GetERKNS_5TableE(ptr dead_on_unwind noalias writable sret(%"class.arrow::Result.188") align 8 %0, ptr noundef nonnull align 8 dereferenceable(24) %1, ptr noundef nonnull align 8 dereferenceable(32) %2) local_unnamed_addr #1 align 2 personality ptr @__gxx_personality_v0 {
  %4 = alloca %"class.arrow::NestedSelector.192", align 8
  %5 = load ptr, ptr %2, align 8, !tbaa !330
  %6 = getelementptr inbounds nuw i8, ptr %5, i64 24
  %7 = load ptr, ptr %6, align 8
  %8 = tail call noundef nonnull align 8 dereferenceable(24) ptr %7(ptr noundef nonnull align 8 dereferenceable(32) %2)
  call void @llvm.memset.p0.i64(ptr noundef nonnull align 8 dereferenceable(40) %4, i8 0, i64 16, i1 false)
  %9 = getelementptr inbounds nuw i8, ptr %4, i64 16
  store ptr %8, ptr %9, align 8, !tbaa !1320
  %10 = getelementptr inbounds nuw i8, ptr %4, i64 24
  store i8 1, ptr %10, align 8, !tbaa !1323
  %11 = invoke noundef ptr @_ZN5arrow19default_memory_poolEv()
          to label %_ZN5arrow14NestedSelectorINS_12ChunkedArrayELb0EEC2ERKSt6vectorISt10shared_ptrIS1_ESaIS5_EE.exit unwind label %12

common.resume:                                    ; preds = %39, %12
  %common.resume.op = phi { ptr, i32 } [ %13, %12 ], [ %40, %39 ]
  resume { ptr, i32 } %common.resume.op

12:                                               ; preds = %3
  %13 = landingpad { ptr, i32 }
          cleanup
  call void @_ZNSt12__shared_ptrIN5arrow12ChunkedArrayELN9__gnu_cxx12_Lock_policyE2EED2Ev(ptr noundef nonnull align 8 dereferenceable(40) %4) #38
  br label %common.resume

_ZN5arrow14NestedSelectorINS_12ChunkedArrayELb0EEC2ERKSt6vectorISt10shared_ptrIS1_ESaIS5_EE.exit: ; preds = %3
  %14 = getelementptr inbounds nuw i8, ptr %4, i64 32
  store ptr %11, ptr %14, align 8, !tbaa !1325
  invoke void @_ZN5arrow16FieldPathGetImpl3GetINS_14NestedSelectorINS_12ChunkedArrayELb0EEES3_EENS_6ResultISt10shared_ptrIT0_EEEPKNS_9FieldPathET_Pi(ptr dead_on_unwind writable sret(%"class.arrow::Result.188") align 8 %0, ptr noundef nonnull %1, ptr noundef nonnull %4, ptr noundef null)
          to label %15 unwind label %39

15:                                               ; preds = %_ZN5arrow14NestedSelectorINS_12ChunkedArrayELb0EEC2ERKSt6vectorISt10shared_ptrIS1_ESaIS5_EE.exit
  %16 = getelementptr inbounds nuw i8, ptr %4, i64 8
  %17 = load ptr, ptr %16, align 8, !tbaa !352
  %.not.i.i.i = icmp eq ptr %17, null
  br i1 %.not.i.i.i, label %_ZN5arrow14NestedSelectorINS_12ChunkedArrayELb0EED2Ev.exit, label %18

18:                                               ; preds = %15
  %19 = getelementptr inbounds nuw i8, ptr %17, i64 8
  %20 = load atomic i64, ptr %19 acquire, align 8
  %21 = icmp eq i64 %20, 4294967297
  %22 = trunc i64 %20 to i32
  br i1 %21, label %23, label %31

23:                                               ; preds = %18
  store i32 0, ptr %19, align 8, !tbaa !482
  %24 = getelementptr inbounds nuw i8, ptr %17, i64 12
  store i32 0, ptr %24, align 4, !tbaa !493
  %25 = load ptr, ptr %17, align 8, !tbaa !330
  %26 = getelementptr inbounds nuw i8, ptr %25, i64 16
  %27 = load ptr, ptr %26, align 8
  call void %27(ptr noundef nonnull align 8 dereferenceable(16) %17) #38
  %28 = load ptr, ptr %17, align 8, !tbaa !330
  %29 = getelementptr inbounds nuw i8, ptr %28, i64 24
  %30 = load ptr, ptr %29, align 8
  call void %30(ptr noundef nonnull align 8 dereferenceable(16) %17) #38
  br label %_ZN5arrow14NestedSelectorINS_12ChunkedArrayELb0EED2Ev.exit

31:                                               ; preds = %18
  %32 = load i8, ptr @__libc_single_threaded, align 1, !tbaa !42
  %.not.i.i.i.i = icmp eq i8 %32, 0
  br i1 %.not.i.i.i.i, label %35, label %33

33:                                               ; preds = %31
  %34 = add nsw i32 %22, -1
  store i32 %34, ptr %19, align 4, !tbaa !358
  br label %_ZN9__gnu_cxx27__exchange_and_add_dispatchEPii.exit.i.i.i.i

35:                                               ; preds = %31
  %36 = atomicrmw volatile add ptr %19, i32 -1 acq_rel, align 4
  br label %_ZN9__gnu_cxx27__exchange_and_add_dispatchEPii.exit.i.i.i.i

_ZN9__gnu_cxx27__exchange_and_add_dispatchEPii.exit.i.i.i.i: ; preds = %35, %33
  %.0.i.i.i.i.i = phi i32 [ %22, %33 ], [ %36, %35 ]
  %37 = icmp eq i32 %.0.i.i.i.i.i, 1
  br i1 %37, label %38, label %_ZN5arrow14NestedSelectorINS_12ChunkedArrayELb0EED2Ev.exit, !prof !559

38:                                               ; preds = %_ZN9__gnu_cxx27__exchange_and_add_dispatchEPii.exit.i.i.i.i
  call void @_ZNSt16_Sp_counted_baseILN9__gnu_cxx12_Lock_policyE2EE24_M_release_last_use_coldEv(ptr noundef nonnull align 8 dereferenceable(16) %17) #38
  br label %_ZN5arrow14NestedSelectorINS_12ChunkedArrayELb0EED2Ev.exit

_ZN5arrow14NestedSelectorINS_12ChunkedArrayELb0EED2Ev.exit: ; preds = %15, %23, %_ZN9__gnu_cxx27__exchange_and_add_dispatchEPii.exit.i.i.i.i, %38
  ret void

39:                                               ; preds = %_ZN5arrow14NestedSelectorINS_12ChunkedArrayELb0EEC2ERKSt6vectorISt10shared_ptrIS1_ESaIS5_EE.exit
  %40 = landingpad { ptr, i32 }
          cleanup
  call void @_ZN5arrow14NestedSelectorINS_12ChunkedArrayELb0EED2Ev(ptr noundef nonnull align 8 dereferenceable(40) %4) #38
  br label %common.resume
}